target datalayout = "e-m:e-p270:32:32-p271:32:32-p272:64:64-i64:64-i128:128-f80:128-n8:16:32:64-S128"
target triple = "x86_64-unknown-linux-gnu"

%class.btVector3 = type { [4 x float] }
%class.btCylinderShape = type <{ %class.btConvexInternalShape, i32, [4 x i8] }>
%class.btConvexInternalShape = type { %class.btConvexShape, %class.btVector3, %class.btVector3, float, float }
%class.btConvexShape = type { %class.btCollisionShape }
%class.btCollisionShape = type { ptr, i32, ptr, i32, i32 }

; Function Attrs: mustprogress uwtable
define linkonce_odr dso_local void @_ZN21btConvexInternalShape13setSafeMarginEff(ptr noundef nonnull align 8 dereferenceable(72) %this, float noundef %minDimension, float noundef %defaultMarginMultiplier) #4 comdat align 2 {
entry:
  %this.addr = alloca ptr, align 8
  %minDimension.addr = alloca float, align 4
  %defaultMarginMultiplier.addr = alloca float, align 4
  %safeMargin = alloca float, align 4
  store ptr %this, ptr %this.addr, align 8
  store float %minDimension, ptr %minDimension.addr, align 4
  store float %defaultMarginMultiplier, ptr %defaultMarginMultiplier.addr, align 4
  %this1 = load ptr, ptr %this.addr, align 8
  %0 = load float, ptr %defaultMarginMultiplier.addr, align 4
  %1 = load float, ptr %minDimension.addr, align 4
  %mul = fmul float %0, %1
  store float %mul, ptr %safeMargin, align 4
  %2 = load float, ptr %safeMargin, align 4
  %vtable = load ptr, ptr %this1, align 8
  %vfn = getelementptr inbounds ptr, ptr %vtable, i64 12
  %3 = load ptr, ptr %vfn, align 8
  %call = call noundef float %3(ptr noundef nonnull align 8 dereferenceable(72) %this1)
  %cmp = fcmp olt float %2, %call
  br i1 %cmp, label %if.then, label %if.end

if.then:                                          ; preds = %entry
  %4 = load float, ptr %safeMargin, align 4
  %vtable2 = load ptr, ptr %this1, align 8
  %vfn3 = getelementptr inbounds ptr, ptr %vtable2, i64 11
  %5 = load ptr, ptr %vfn3, align 8
  call void %5(ptr noundef nonnull align 8 dereferenceable(72) %this1, float noundef %4)
  br label %if.end

if.end:                                           ; preds = %if.then, %entry
  ret void
}

; Function Attrs: mustprogress nounwind uwtable
define linkonce_odr dso_local noundef i32 @_ZNK9btVector37minAxisEv(ptr noundef nonnull align 4 dereferenceable(16) %this) #1 comdat align 2 {
entry:
  %this.addr = alloca ptr, align 8
  store ptr %this, ptr %this.addr, align 8
  %this1 = load ptr, ptr %this.addr, align 8
  %m_floats = getelementptr inbounds %class.btVector3, ptr %this1, i32 0, i32 0
  %arrayidx = getelementptr inbounds [4 x float], ptr %m_floats, i64 0, i64 0
  %0 = load float, ptr %arrayidx, align 4
  %m_floats2 = getelementptr inbounds %class.btVector3, ptr %this1, i32 0, i32 0
  %arrayidx3 = getelementptr inbounds [4 x float], ptr %m_floats2, i64 0, i64 1
  %1 = load float, ptr %arrayidx3, align 4
  %cmp = fcmp olt float %0, %1
  br i1 %cmp, label %cond.true, label %cond.false

cond.true:                                        ; preds = %entry
  %m_floats4 = getelementptr inbounds %class.btVector3, ptr %this1, i32 0, i32 0
  %arrayidx5 = getelementptr inbounds [4 x float], ptr %m_floats4, i64 0, i64 0
  %2 = load float, ptr %arrayidx5, align 4
  %m_floats6 = getelementptr inbounds %class.btVector3, ptr %this1, i32 0, i32 0
  %arrayidx7 = getelementptr inbounds [4 x float], ptr %m_floats6, i64 0, i64 2
  %3 = load float, ptr %arrayidx7, align 4
  %cmp8 = fcmp olt float %2, %3
  %cond = select i1 %cmp8, i32 0, i32 2
  br label %cond.end

cond.false:                                       ; preds = %entry
  %m_floats9 = getelementptr inbounds %class.btVector3, ptr %this1, i32 0, i32 0
  %arrayidx10 = getelementptr inbounds [4 x float], ptr %m_floats9, i64 0, i64 1
  %4 = load float, ptr %arrayidx10, align 4
  %m_floats11 = getelementptr inbounds %class.btVector3, ptr %this1, i32 0, i32 0
  %arrayidx12 = getelementptr inbounds [4 x float], ptr %m_floats11, i64 0, i64 2
  %5 = load float, ptr %arrayidx12, align 4
  %cmp13 = fcmp olt float %4, %5
  %cond14 = select i1 %cmp13, i32 1, i32 2
  br label %cond.end

cond.end:                                         ; preds = %cond.false, %cond.true
  %cond15 = phi i32 [ %cond, %cond.true ], [ %cond14, %cond.false ]
  ret i32 %cond15
}

; Function Attrs: mustprogress nounwind uwtable
define linkonce_odr dso_local noundef ptr @_ZNK9btVector3cvPKfEv(ptr noundef nonnull align 4 dereferenceable(16) %this) #1 comdat align 2 {
entry:
  %this.addr = alloca ptr, align 8
  store ptr %this, ptr %this.addr, align 8
  %this1 = load ptr, ptr %this.addr, align 8
  %m_floats = getelementptr inbounds %class.btVector3, ptr %this1, i32 0, i32 0
  %arrayidx = getelementptr inbounds [4 x float], ptr %m_floats, i64 0, i64 0
  ret ptr %arrayidx
}

; Function Attrs: mustprogress nounwind uwtable
define linkonce_odr dso_local void @_ZN21btConvexInternalShapeD2Ev(ptr noundef nonnull align 8 dereferenceable(72) %this) unnamed_addr #1 comdat align 2 {
entry:
  %this.addr = alloca ptr, align 8
  store ptr %this, ptr %this.addr, align 8
  %this1 = load ptr, ptr %this.addr, align 8
  call void @_ZN13btConvexShapeD2Ev(ptr noundef nonnull align 8 dereferenceable(32) %this1) #9
  ret void
}

; Function Attrs: mustprogress uwtable
define linkonce_odr dso_local void @_ZN21btConvexInternalShape13setSafeMarginERK9btVector3f(ptr noundef nonnull align 8 dereferenceable(72) %this, ptr noundef nonnull align 4 dereferenceable(16) %halfExtents, float noundef %defaultMarginMultiplier) #4 comdat align 2 {
entry:
  %this.addr = alloca ptr, align 8
  %halfExtents.addr = alloca ptr, align 8
  %defaultMarginMultiplier.addr = alloca float, align 4
  %minDimension = alloca float, align 4
  store ptr %this, ptr %this.addr, align 8
  store ptr %halfExtents, ptr %halfExtents.addr, align 8
  store float %defaultMarginMultiplier, ptr %defaultMarginMultiplier.addr, align 4
  %this1 = load ptr, ptr %this.addr, align 8
  %0 = load ptr, ptr %halfExtents.addr, align 8
  %call = call noundef ptr @_ZNK9btVector3cvPKfEv(ptr noundef nonnull align 4 dereferenceable(16) %0)
  %1 = load ptr, ptr %halfExtents.addr, align 8
  %call2 = call noundef i32 @_ZNK9btVector37minAxisEv(ptr noundef nonnull align 4 dereferenceable(16) %1)
  %idxprom = sext i32 %call2 to i64
  %arrayidx = getelementptr inbounds float, ptr %call, i64 %idxprom
  %2 = load float, ptr %arrayidx, align 4
  store float %2, ptr %minDimension, align 4
  %3 = load float, ptr %minDimension, align 4
  %4 = load float, ptr %defaultMarginMultiplier.addr, align 4
  call void @_ZN21btConvexInternalShape13setSafeMarginEff(ptr noundef nonnull align 8 dereferenceable(72) %this1, float noundef %3, float noundef %4)
  ret void
}

; Function Attrs: mustprogress uwtable
define linkonce_odr dso_local { <2 x float>, <2 x float> } @_ZmiRK9btVector3S1_(ptr noundef nonnull align 4 dereferenceable(16) %v1, ptr noundef nonnull align 4 dereferenceable(16) %v2) #4 comdat {
entry:
  %retval = alloca %class.btVector3, align 4
  %v1.addr = alloca ptr, align 8
  %v2.addr = alloca ptr, align 8
  %ref.tmp = alloca float, align 4
  %ref.tmp3 = alloca float, align 4
  %ref.tmp9 = alloca float, align 4
  store ptr %v1, ptr %v1.addr, align 8
  store ptr %v2, ptr %v2.addr, align 8
  %0 = load ptr, ptr %v1.addr, align 8
  %m_floats = getelementptr inbounds %class.btVector3, ptr %0, i32 0, i32 0
  %arrayidx = getelementptr inbounds [4 x float], ptr %m_floats, i64 0, i64 0
  %1 = load float, ptr %arrayidx, align 4
  %2 = load ptr, ptr %v2.addr, align 8
  %m_floats1 = getelementptr inbounds %class.btVector3, ptr %2, i32 0, i32 0
  %arrayidx2 = getelementptr inbounds [4 x float], ptr %m_floats1, i64 0, i64 0
  %3 = load float, ptr %arrayidx2, align 4
  %sub = fsub float %1, %3
  store float %sub, ptr %ref.tmp, align 4
  %4 = load ptr, ptr %v1.addr, align 8
  %m_floats4 = getelementptr inbounds %class.btVector3, ptr %4, i32 0, i32 0
  %arrayidx5 = getelementptr inbounds [4 x float], ptr %m_floats4, i64 0, i64 1
  %5 = load float, ptr %arrayidx5, align 4
  %6 = load ptr, ptr %v2.addr, align 8
  %m_floats6 = getelementptr inbounds %class.btVector3, ptr %6, i32 0, i32 0
  %arrayidx7 = getelementptr inbounds [4 x float], ptr %m_floats6, i64 0, i64 1
  %7 = load float, ptr %arrayidx7, align 4
  %sub8 = fsub float %5, %7
  store float %sub8, ptr %ref.tmp3, align 4
  %8 = load ptr, ptr %v1.addr, align 8
  %m_floats10 = getelementptr inbounds %class.btVector3, ptr %8, i32 0, i32 0
  %arrayidx11 = getelementptr inbounds [4 x float], ptr %m_floats10, i64 0, i64 2
  %9 = load float, ptr %arrayidx11, align 4
  %10 = load ptr, ptr %v2.addr, align 8
  %m_floats12 = getelementptr inbounds %class.btVector3, ptr %10, i32 0, i32 0
  %arrayidx13 = getelementptr inbounds [4 x float], ptr %m_floats12, i64 0, i64 2
  %11 = load float, ptr %arrayidx13, align 4
  %sub14 = fsub float %9, %11
  store float %sub14, ptr %ref.tmp9, align 4
  call void @_ZN9btVector3C2ERKfS1_S1_(ptr noundef nonnull align 4 dereferenceable(16) %retval, ptr noundef nonnull align 4 dereferenceable(4) %ref.tmp, ptr noundef nonnull align 4 dereferenceable(4) %ref.tmp3, ptr noundef nonnull align 4 dereferenceable(4) %ref.tmp9)
  %coerce.dive = getelementptr inbounds %class.btVector3, ptr %retval, i32 0, i32 0
  %12 = load { <2 x float>, <2 x float> }, ptr %coerce.dive, align 4
  ret { <2 x float>, <2 x float> } %12
}

; Function Attrs: mustprogress uwtable
define linkonce_odr dso_local { <2 x float>, <2 x float> } @_ZmlRK9btVector3S1_(ptr noundef nonnull align 4 dereferenceable(16) %v1, ptr noundef nonnull align 4 dereferenceable(16) %v2) #4 comdat {
entry:
  %retval = alloca %class.btVector3, align 4
  %v1.addr = alloca ptr, align 8
  %v2.addr = alloca ptr, align 8
  %ref.tmp = alloca float, align 4
  %ref.tmp3 = alloca float, align 4
  %ref.tmp9 = alloca float, align 4
  store ptr %v1, ptr %v1.addr, align 8
  store ptr %v2, ptr %v2.addr, align 8
  %0 = load ptr, ptr %v1.addr, align 8
  %m_floats = getelementptr inbounds %class.btVector3, ptr %0, i32 0, i32 0
  %arrayidx = getelementptr inbounds [4 x float], ptr %m_floats, i64 0, i64 0
  %1 = load float, ptr %arrayidx, align 4
  %2 = load ptr, ptr %v2.addr, align 8
  %m_floats1 = getelementptr inbounds %class.btVector3, ptr %2, i32 0, i32 0
  %arrayidx2 = getelementptr inbounds [4 x float], ptr %m_floats1, i64 0, i64 0
  %3 = load float, ptr %arrayidx2, align 4
  %mul = fmul float %1, %3
  store float %mul, ptr %ref.tmp, align 4
  %4 = load ptr, ptr %v1.addr, align 8
  %m_floats4 = getelementptr inbounds %class.btVector3, ptr %4, i32 0, i32 0
  %arrayidx5 = getelementptr inbounds [4 x float], ptr %m_floats4, i64 0, i64 1
  %5 = load float, ptr %arrayidx5, align 4
  %6 = load ptr, ptr %v2.addr, align 8
  %m_floats6 = getelementptr inbounds %class.btVector3, ptr %6, i32 0, i32 0
  %arrayidx7 = getelementptr inbounds [4 x float], ptr %m_floats6, i64 0, i64 1
  %7 = load float, ptr %arrayidx7, align 4
  %mul8 = fmul float %5, %7
  store float %mul8, ptr %ref.tmp3, align 4
  %8 = load ptr, ptr %v1.addr, align 8
  %m_floats10 = getelementptr inbounds %class.btVector3, ptr %8, i32 0, i32 0
  %arrayidx11 = getelementptr inbounds [4 x float], ptr %m_floats10, i64 0, i64 2
  %9 = load float, ptr %arrayidx11, align 4
  %10 = load ptr, ptr %v2.addr, align 8
  %m_floats12 = getelementptr inbounds %class.btVector3, ptr %10, i32 0, i32 0
  %arrayidx13 = getelementptr inbounds [4 x float], ptr %m_floats12, i64 0, i64 2
  %11 = load float, ptr %arrayidx13, align 4
  %mul14 = fmul float %9, %11
  store float %mul14, ptr %ref.tmp9, align 4
  call void @_ZN9btVector3C2ERKfS1_S1_(ptr noundef nonnull align 4 dereferenceable(16) %retval, ptr noundef nonnull align 4 dereferenceable(4) %ref.tmp, ptr noundef nonnull align 4 dereferenceable(4) %ref.tmp3, ptr noundef nonnull align 4 dereferenceable(4) %ref.tmp9)
  %coerce.dive = getelementptr inbounds %class.btVector3, ptr %retval, i32 0, i32 0
  %12 = load { <2 x float>, <2 x float> }, ptr %coerce.dive, align 4
  ret { <2 x float>, <2 x float> } %12
}

; Function Attrs: mustprogress nounwind uwtable
define linkonce_odr dso_local void @_ZN9btVector3C2ERKfS1_S1_(ptr noundef nonnull align 4 dereferenceable(16) %this, ptr noundef nonnull align 4 dereferenceable(4) %_x, ptr noundef nonnull align 4 dereferenceable(4) %_y, ptr noundef nonnull align 4 dereferenceable(4) %_z) unnamed_addr #1 comdat align 2 {
entry:
  %this.addr = alloca ptr, align 8
  %_x.addr = alloca ptr, align 8
  %_y.addr = alloca ptr, align 8
  %_z.addr = alloca ptr, align 8
  store ptr %this, ptr %this.addr, align 8
  store ptr %_x, ptr %_x.addr, align 8
  store ptr %_y, ptr %_y.addr, align 8
  store ptr %_z, ptr %_z.addr, align 8
  %this1 = load ptr, ptr %this.addr, align 8
  %0 = load ptr, ptr %_x.addr, align 8
  %1 = load float, ptr %0, align 4
  %m_floats = getelementptr inbounds %class.btVector3, ptr %this1, i32 0, i32 0
  %arrayidx = getelementptr inbounds [4 x float], ptr %m_floats, i64 0, i64 0
  store float %1, ptr %arrayidx, align 4
  %2 = load ptr, ptr %_y.addr, align 8
  %3 = load float, ptr %2, align 4
  %m_floats2 = getelementptr inbounds %class.btVector3, ptr %this1, i32 0, i32 0
  %arrayidx3 = getelementptr inbounds [4 x float], ptr %m_floats2, i64 0, i64 1
  store float %3, ptr %arrayidx3, align 4
  %4 = load ptr, ptr %_z.addr, align 8
  %5 = load float, ptr %4, align 4
  %m_floats4 = getelementptr inbounds %class.btVector3, ptr %this1, i32 0, i32 0
  %arrayidx5 = getelementptr inbounds [4 x float], ptr %m_floats4, i64 0, i64 2
  store float %5, ptr %arrayidx5, align 4
  %m_floats6 = getelementptr inbounds %class.btVector3, ptr %this1, i32 0, i32 0
  %arrayidx7 = getelementptr inbounds [4 x float], ptr %m_floats6, i64 0, i64 3
  store float 0.000000e+00, ptr %arrayidx7, align 4
  ret void
}

; Function Attrs: mustprogress uwtable
define dso_local void @_ZN15btCylinderShapeC2ERK9btVector3(ptr noundef nonnull align 8 dereferenceable(76) %this, ptr noundef nonnull align 4 dereferenceable(16) %halfExtents) unnamed_addr #2 align 2 personality ptr @__gxx_personality_v0 {
entry:
  %this.addr = alloca ptr, align 8
  %halfExtents.addr = alloca ptr, align 8
  %margin = alloca %class.btVector3, align 4
  %ref.tmp = alloca float, align 4
  %exn.slot = alloca ptr, align 8
  %ehselector.slot = alloca i32, align 4
  %ref.tmp2 = alloca float, align 4
  %ref.tmp7 = alloca float, align 4
  %ref.tmp13 = alloca %class.btVector3, align 4
  %ref.tmp14 = alloca %class.btVector3, align 4
  store ptr %this, ptr %this.addr, align 8
  store ptr %halfExtents, ptr %halfExtents.addr, align 8
  %this1 = load ptr, ptr %this.addr, align 8
  call void @_ZN21btConvexInternalShapeC2Ev(ptr noundef nonnull align 8 dereferenceable(72) %this1)
  store ptr getelementptr inbounds ({ [26 x ptr] }, ptr @_ZTV15btCylinderShape, i32 0, i32 0, i32 2), ptr %this1, align 8
  %m_upAxis = getelementptr inbounds %class.btCylinderShape, ptr %this1, i32 0, i32 1
  store i32 1, ptr %m_upAxis, align 8
  %vtable = load ptr, ptr %this1, align 8
  %vfn = getelementptr inbounds ptr, ptr %vtable, i64 12
  %0 = load ptr, ptr %vfn, align 8
  %call = invoke noundef float %0(ptr noundef nonnull align 8 dereferenceable(72) %this1)
          to label %invoke.cont unwind label %lpad

invoke.cont:                                      ; preds = %entry
  store float %call, ptr %ref.tmp, align 4
  %vtable3 = load ptr, ptr %this1, align 8
  %vfn4 = getelementptr inbounds ptr, ptr %vtable3, i64 12
  %1 = load ptr, ptr %vfn4, align 8
  %call6 = invoke noundef float %1(ptr noundef nonnull align 8 dereferenceable(72) %this1)
          to label %invoke.cont5 unwind label %lpad

invoke.cont5:                                     ; preds = %invoke.cont
  store float %call6, ptr %ref.tmp2, align 4
  %vtable8 = load ptr, ptr %this1, align 8
  %vfn9 = getelementptr inbounds ptr, ptr %vtable8, i64 12
  %2 = load ptr, ptr %vfn9, align 8
  %call11 = invoke noundef float %2(ptr noundef nonnull align 8 dereferenceable(72) %this1)
          to label %invoke.cont10 unwind label %lpad

invoke.cont10:                                    ; preds = %invoke.cont5
  store float %call11, ptr %ref.tmp7, align 4
  invoke void @_ZN9btVector3C2ERKfS1_S1_(ptr noundef nonnull align 4 dereferenceable(16) %margin, ptr noundef nonnull align 4 dereferenceable(4) %ref.tmp, ptr noundef nonnull align 4 dereferenceable(4) %ref.tmp2, ptr noundef nonnull align 4 dereferenceable(4) %ref.tmp7)
          to label %invoke.cont12 unwind label %lpad

invoke.cont12:                                    ; preds = %invoke.cont10
  %3 = load ptr, ptr %halfExtents.addr, align 8
  %m_localScaling = getelementptr inbounds %class.btConvexInternalShape, ptr %this1, i32 0, i32 1
  %call16 = invoke { <2 x float>, <2 x float> } @_ZmlRK9btVector3S1_(ptr noundef nonnull align 4 dereferenceable(16) %3, ptr noundef nonnull align 4 dereferenceable(16) %m_localScaling)
          to label %invoke.cont15 unwind label %lpad

invoke.cont15:                                    ; preds = %invoke.cont12
  %coerce.dive = getelementptr inbounds %class.btVector3, ptr %ref.tmp14, i32 0, i32 0
  %4 = getelementptr inbounds { <2 x float>, <2 x float> }, ptr %coerce.dive, i32 0, i32 0
  %5 = extractvalue { <2 x float>, <2 x float> } %call16, 0
  store <2 x float> %5, ptr %4, align 4
  %6 = getelementptr inbounds { <2 x float>, <2 x float> }, ptr %coerce.dive, i32 0, i32 1
  %7 = extractvalue { <2 x float>, <2 x float> } %call16, 1
  store <2 x float> %7, ptr %6, align 4
  %call18 = invoke { <2 x float>, <2 x float> } @_ZmiRK9btVector3S1_(ptr noundef nonnull align 4 dereferenceable(16) %ref.tmp14, ptr noundef nonnull align 4 dereferenceable(16) %margin)
          to label %invoke.cont17 unwind label %lpad

invoke.cont17:                                    ; preds = %invoke.cont15
  %coerce.dive19 = getelementptr inbounds %class.btVector3, ptr %ref.tmp13, i32 0, i32 0
  %8 = getelementptr inbounds { <2 x float>, <2 x float> }, ptr %coerce.dive19, i32 0, i32 0
  %9 = extractvalue { <2 x float>, <2 x float> } %call18, 0
  store <2 x float> %9, ptr %8, align 4
  %10 = getelementptr inbounds { <2 x float>, <2 x float> }, ptr %coerce.dive19, i32 0, i32 1
  %11 = extractvalue { <2 x float>, <2 x float> } %call18, 1
  store <2 x float> %11, ptr %10, align 4
  %m_implicitShapeDimensions = getelementptr inbounds %class.btConvexInternalShape, ptr %this1, i32 0, i32 2
  call void @llvm.memcpy.p0.p0.i64(ptr align 8 %m_implicitShapeDimensions, ptr align 4 %ref.tmp13, i64 16, i1 false)
  %12 = load ptr, ptr %halfExtents.addr, align 8
  invoke void @_ZN21btConvexInternalShape13setSafeMarginERK9btVector3f(ptr noundef nonnull align 8 dereferenceable(72) %this1, ptr noundef nonnull align 4 dereferenceable(16) %12, float noundef 0x3FB99999A0000000)
          to label %invoke.cont20 unwind label %lpad

invoke.cont20:                                    ; preds = %invoke.cont17
  %m_shapeType = getelementptr inbounds %class.btCollisionShape, ptr %this1, i32 0, i32 1
  store i32 13, ptr %m_shapeType, align 8
  ret void

lpad:                                             ; preds = %invoke.cont17, %invoke.cont15, %invoke.cont12, %invoke.cont10, %invoke.cont5, %invoke.cont, %entry
  %13 = landingpad { ptr, i32 }
          cleanup
  %14 = extractvalue { ptr, i32 } %13, 0
  store ptr %14, ptr %exn.slot, align 8
  %15 = extractvalue { ptr, i32 } %13, 1
  store i32 %15, ptr %ehselector.slot, align 4
  call void @_ZN21btConvexInternalShapeD2Ev(ptr noundef nonnull align 8 dereferenceable(72) %this1) #9
  br label %eh.resume

eh.resume:                                        ; preds = %lpad
  %exn = load ptr, ptr %exn.slot, align 8
  %sel = load i32, ptr %ehselector.slot, align 4
  %lpad.val = insertvalue { ptr, i32 } poison, ptr %exn, 0
  %lpad.val21 = insertvalue { ptr, i32 } %lpad.val, i32 %sel, 1
  resume { ptr, i32 } %lpad.val21
}