; Function Attrs: mustprogress uwtable
define dso_local void @_ZN15btCylinderShapeC2ERK9btVector3(ptr noundef nonnull align 8 dereferenceable(76) %this, ptr nocapture noundef nonnull readonly align 4 dereferenceable(16) %halfExtents) unnamed_addr #0 align 2 personality ptr @__gxx_personality_v0 {
entry:
  tail call void @_ZN21btConvexInternalShapeC2Ev(ptr noundef nonnull align 8 dereferenceable(72) %this)
  store ptr getelementptr inbounds ({ [26 x ptr] }, ptr @_ZTV15btCylinderShape, i64 0, i32 0, i64 2), ptr %this, align 8
  %m_upAxis = getelementptr inbounds i8, ptr %this, i64 72
  store i32 1, ptr %m_upAxis, align 8
  %m_collisionMargin.i = getelementptr inbounds i8, ptr %this, i64 64
  %0 = load float, ptr %m_collisionMargin.i, align 8
  %m_localScaling = getelementptr inbounds i8, ptr %this, i64 32
  %arrayidx5.i2 = getelementptr inbounds i8, ptr %halfExtents, i64 4
  %arrayidx11.i = getelementptr inbounds i8, ptr %halfExtents, i64 8
  %1 = load float, ptr %arrayidx11.i, align 4
  %arrayidx13.i = getelementptr inbounds i8, ptr %this, i64 40
  %2 = load float, ptr %arrayidx13.i, align 8
  %mul14.i = fmul float %1, %2
  %3 = load <2 x float>, ptr %halfExtents, align 4
  %4 = load <2 x float>, ptr %m_localScaling, align 8
  %5 = fmul <2 x float> %3, %4
  %6 = insertelement <2 x float> poison, float %0, i64 0
  %7 = shufflevector <2 x float> %6, <2 x float> poison, <2 x i32> zeroinitializer
  %8 = fsub <2 x float> %5, %7
  %sub14.i = fsub float %mul14.i, %0
  %retval.sroa.3.12.vec.insert.i10 = insertelement <2 x float> <float poison, float 0.000000e+00>, float %sub14.i, i64 0
  %m_implicitShapeDimensions = getelementptr inbounds i8, ptr %this, i64 48
  store <2 x float> %8, ptr %m_implicitShapeDimensions, align 8
  %ref.tmp13.sroa.2.0.m_implicitShapeDimensions.sroa_idx = getelementptr inbounds i8, ptr %this, i64 56
  store <2 x float> %retval.sroa.3.12.vec.insert.i10, ptr %ref.tmp13.sroa.2.0.m_implicitShapeDimensions.sroa_idx, align 8
  %9 = load float, ptr %halfExtents, align 4
  %10 = load float, ptr %arrayidx5.i2, align 4
  %cmp.i.i = fcmp uge float %9, %10
  %11 = load float, ptr %arrayidx11.i, align 4
  %..i.i = select i1 %cmp.i.i, float %10, float %9
  %cmp13.i.i = fcmp olt float %..i.i, %11
  %12 = zext i1 %cmp.i.i to i64
  %idxprom.i = select i1 %cmp13.i.i, i64 %12, i64 2
  %arrayidx.i = getelementptr inbounds float, ptr %halfExtents, i64 %idxprom.i
  %13 = load float, ptr %arrayidx.i, align 4
  %mul.i.i = fmul float %13, 0x3FB99999A0000000
  %cmp.i2.i = fcmp olt float %mul.i.i, %0
  br i1 %cmp.i2.i, label %if.then.i.i, label %invoke.cont20

if.then.i.i:                                      ; preds = %entry
  %call.i17 = tail call noundef float @_ZNK21btConvexInternalShape9getMarginEv(ptr noundef nonnull align 8 dereferenceable(72) %this)
  %vtable3.i = load ptr, ptr %this, align 8
  %vfn4.i = getelementptr inbounds i8, ptr %vtable3.i, i64 96
  %14 = load ptr, ptr %vfn4.i, align 8
  %call5.i18 = invoke noundef float %14(ptr noundef nonnull align 8 dereferenceable(72) %this)
          to label %call5.i.noexc unwind label %lpad

call5.i.noexc:                                    ; preds = %if.then.i.i
  %vtable7.i = load ptr, ptr %this, align 8
  %vfn8.i = getelementptr inbounds i8, ptr %vtable7.i, i64 96
  %15 = load ptr, ptr %vfn8.i, align 8
  %call9.i19 = invoke noundef float %15(ptr noundef nonnull align 8 dereferenceable(72) %this)
          to label %call9.i.noexc unwind label %lpad

call9.i.noexc:                                    ; preds = %call5.i.noexc
  %16 = load <2 x float>, ptr %m_implicitShapeDimensions, align 8
  %17 = insertelement <2 x float> poison, float %call.i17, i64 0
  %18 = insertelement <2 x float> %17, float %call5.i18, i64 1
  %19 = fadd <2 x float> %18, %16
  %20 = load float, ptr %ref.tmp13.sroa.2.0.m_implicitShapeDimensions.sroa_idx, align 8
  %add14.i.i = fadd float %call9.i19, %20
  store float %mul.i.i, ptr %m_collisionMargin.i, align 8
  %vtable12.i = load ptr, ptr %this, align 8
  %vfn13.i = getelementptr inbounds i8, ptr %vtable12.i, i64 96
  %21 = load ptr, ptr %vfn13.i, align 8
  %call14.i20 = invoke noundef float %21(ptr noundef nonnull align 8 dereferenceable(72) %this)
          to label %call14.i.noexc unwind label %lpad

call14.i.noexc:                                   ; preds = %call9.i.noexc
  %vtable16.i = load ptr, ptr %this, align 8
  %vfn17.i = getelementptr inbounds i8, ptr %vtable16.i, i64 96
  %22 = load ptr, ptr %vfn17.i, align 8
  %call18.i21 = invoke noundef float %22(ptr noundef nonnull align 8 dereferenceable(72) %this)
          to label %call18.i.noexc unwind label %lpad

call18.i.noexc:                                   ; preds = %call14.i.noexc
  %vtable20.i = load ptr, ptr %this, align 8
  %vfn21.i = getelementptr inbounds i8, ptr %vtable20.i, i64 96
  %23 = load ptr, ptr %vfn21.i, align 8
  %call22.i22 = invoke noundef float %23(ptr noundef nonnull align 8 dereferenceable(72) %this)
          to label %_ZN15btCylinderShape9setMarginEf.exit unwind label %lpad

_ZN15btCylinderShape9setMarginEf.exit:            ; preds = %call18.i.noexc
  %24 = insertelement <2 x float> poison, float %call14.i20, i64 0
  %25 = insertelement <2 x float> %24, float %call18.i21, i64 1
  %26 = fsub <2 x float> %19, %25
  %sub14.i.i = fsub float %add14.i.i, %call22.i22
  %retval.sroa.3.12.vec.insert.i12.i = insertelement <2 x float> <float poison, float 0.000000e+00>, float %sub14.i.i, i64 0
  store <2 x float> %26, ptr %m_implicitShapeDimensions, align 8
  store <2 x float> %retval.sroa.3.12.vec.insert.i12.i, ptr %ref.tmp13.sroa.2.0.m_implicitShapeDimensions.sroa_idx, align 8
  br label %invoke.cont20

invoke.cont20:                                    ; preds = %_ZN15btCylinderShape9setMarginEf.exit, %entry
  %m_shapeType = getelementptr inbounds i8, ptr %this, i64 8
  store i32 13, ptr %m_shapeType, align 8
  ret void

lpad:                                             ; preds = %call18.i.noexc, %call14.i.noexc, %call9.i.noexc, %call5.i.noexc, %if.then.i.i
  %27 = landingpad { ptr, i32 }
          cleanup
  tail call void @_ZN13btConvexShapeD2Ev(ptr noundef nonnull align 8 dereferenceable(32) %this) #11
  resume { ptr, i32 } %27
}